target datalayout = "e-m:e-p270:32:32-p271:32:32-p272:64:64-i64:64-i128:128-f80:128-n8:16:32:64-S128"
target triple = "x86_64-pc-linux-gnu"

%struct.AVFilterContext = type { ptr, ptr, ptr, ptr, ptr, i32, ptr, ptr, i32, ptr, ptr, i32, i32, ptr, ptr, ptr, ptr, i32, ptr, i32, i32 }
%struct.AVFilterGraph = type { ptr, ptr, i32, ptr, i32, i32, ptr, ptr, ptr }

; Function Attrs: nounwind willreturn memory(read) uwtable
define i32 @ff_filter_get_nb_threads(ptr noundef %0) #8 {
  %2 = alloca i32, align 4
  %3 = alloca ptr, align 8
  store ptr %0, ptr %3, align 8, !tbaa !4
  %4 = load ptr, ptr %3, align 8, !tbaa !4
  %5 = getelementptr inbounds nuw %struct.AVFilterContext, ptr %4, i32 0, i32 12
  %6 = load i32, ptr %5, align 4, !tbaa !155
  %7 = icmp sgt i32 %6, 0
  br i1 %7, label %8, label %30

8:                                                ; preds = %1
  %9 = load ptr, ptr %3, align 8, !tbaa !4
  %10 = getelementptr inbounds nuw %struct.AVFilterContext, ptr %9, i32 0, i32 12
  %11 = load i32, ptr %10, align 4, !tbaa !155
  %12 = load ptr, ptr %3, align 8, !tbaa !4
  %13 = getelementptr inbounds nuw %struct.AVFilterContext, ptr %12, i32 0, i32 10
  %14 = load ptr, ptr %13, align 8, !tbaa !28
  %15 = getelementptr inbounds nuw %struct.AVFilterGraph, ptr %14, i32 0, i32 5
  %16 = load i32, ptr %15, align 4, !tbaa !156
  %17 = icmp sgt i32 %11, %16
  br i1 %17, label %18, label %24

18:                                               ; preds = %8
  %19 = load ptr, ptr %3, align 8, !tbaa !4
  %20 = getelementptr inbounds nuw %struct.AVFilterContext, ptr %19, i32 0, i32 10
  %21 = load ptr, ptr %20, align 8, !tbaa !28
  %22 = getelementptr inbounds nuw %struct.AVFilterGraph, ptr %21, i32 0, i32 5
  %23 = load i32, ptr %22, align 4, !tbaa !156
  br label %28

24:                                               ; preds = %8
  %25 = load ptr, ptr %3, align 8, !tbaa !4
  %26 = getelementptr inbounds nuw %struct.AVFilterContext, ptr %25, i32 0, i32 12
  %27 = load i32, ptr %26, align 4, !tbaa !155
  br label %28

28:                                               ; preds = %24, %18
  %29 = phi i32 [ %23, %18 ], [ %27, %24 ]
  store i32 %29, ptr %2, align 4
  br label %36

30:                                               ; preds = %1
  %31 = load ptr, ptr %3, align 8, !tbaa !4
  %32 = getelementptr inbounds nuw %struct.AVFilterContext, ptr %31, i32 0, i32 10
  %33 = load ptr, ptr %32, align 8, !tbaa !28
  %34 = getelementptr inbounds nuw %struct.AVFilterGraph, ptr %33, i32 0, i32 5
  %35 = load i32, ptr %34, align 4, !tbaa !156
  store i32 %35, ptr %2, align 4
  br label %36

36:                                               ; preds = %30, %28
  %37 = load i32, ptr %2, align 4
  ret i32 %37
}