; Function Attrs: mustprogress nofree norecurse nosync nounwind willreturn memory(read, inaccessiblemem: none) uwtable
define i32 @ff_filter_get_nb_threads(ptr noundef readonly captures(none) %0) local_unnamed_addr #9 {
  %2 = getelementptr inbounds nuw i8, ptr %0, i64 92
  %3 = load i32, ptr %2, align 4, !tbaa !129
  %4 = icmp sgt i32 %3, 0
  %5 = getelementptr inbounds nuw i8, ptr %0, i64 80
  %6 = load ptr, ptr %5, align 8, !tbaa !19
  %7 = getelementptr inbounds nuw i8, ptr %6, i64 36
  %8 = load i32, ptr %7, align 4, !tbaa !130
  %. = tail call i32 @llvm.smin.i32(i32 %3, i32 %8)
  %.0 = select i1 %4, i32 %., i32 %8
  ret i32 %.0
}